target datalayout = "e-m:e-p270:32:32-p271:32:32-p272:64:64-i64:64-i128:128-f80:128-n8:16:32:64-S128"
target triple = "x86_64-pc-linux-gnu"

%"struct.faiss::DirectMap" = type { i32, %"class.std::vector", %"class.std::unordered_map" }
%"class.std::vector" = type { %"struct.std::_Vector_base" }
%"struct.std::_Vector_base" = type { %"struct.std::_Vector_base<long, std::allocator<long>>::_Vector_impl" }
%"struct.std::_Vector_base<long, std::allocator<long>>::_Vector_impl" = type { %"struct.std::_Vector_base<long, std::allocator<long>>::_Vector_impl_data" }
%"struct.std::_Vector_base<long, std::allocator<long>>::_Vector_impl_data" = type { ptr, ptr, ptr }
%"class.std::unordered_map" = type { %"class.std::_Hashtable" }
%"class.std::_Hashtable" = type { ptr, i64, %"struct.std::__detail::_Hash_node_base", i64, %"struct.std::__detail::_Prime_rehash_policy", ptr }
%"struct.std::__detail::_Hash_node_base" = type { ptr }
%"struct.std::__detail::_Prime_rehash_policy" = type { float, i64 }
%"struct.faiss::DirectMapAdd" = type { ptr, i32, i64, i64, ptr, %"class.std::vector" }

; Function Attrs: mustprogress nounwind uwtable
define linkonce_odr noundef nonnull align 8 dereferenceable(8) ptr @_ZNSt6vectorIlSaIlEEixEm(ptr noundef nonnull align 8 dereferenceable(24) %0, i64 noundef %1) #0 comdat align 2 {
  %3 = alloca ptr, align 8
  %4 = alloca i64, align 8
  store ptr %0, ptr %3, align 8, !tbaa !25
  store i64 %1, ptr %4, align 8, !tbaa !72
  %5 = load ptr, ptr %3, align 8
  %6 = getelementptr inbounds nuw %"struct.std::_Vector_base", ptr %5, i32 0, i32 0
  %7 = getelementptr inbounds nuw %"struct.std::_Vector_base<long, std::allocator<long>>::_Vector_impl_data", ptr %6, i32 0, i32 0
  %8 = load ptr, ptr %7, align 8, !tbaa !35
  %9 = load i64, ptr %4, align 8, !tbaa !72
  %10 = getelementptr inbounds nuw i64, ptr %8, i64 %9
  ret ptr %10
}

; Function Attrs: inlinehint mustprogress nounwind uwtable
define linkonce_odr noundef i64 @_ZN5faiss8lo_buildEmm(i64 noundef %0, i64 noundef %1) #5 comdat {
  %3 = alloca i64, align 8
  %4 = alloca i64, align 8
  store i64 %0, ptr %3, align 8, !tbaa !72
  store i64 %1, ptr %4, align 8, !tbaa !72
  %5 = load i64, ptr %3, align 8, !tbaa !72
  %6 = shl i64 %5, 32
  %7 = load i64, ptr %4, align 8, !tbaa !72
  %8 = or i64 %6, %7
  ret i64 %8
}

; Function Attrs: mustprogress nounwind uwtable
define void @_ZN5faiss12DirectMapAdd3addEmlm(ptr noundef nonnull align 8 dereferenceable(64) %0, i64 noundef %1, i64 noundef %2, i64 noundef %3) #0 align 2 {
  %5 = alloca ptr, align 8
  %6 = alloca i64, align 8
  %7 = alloca i64, align 8
  %8 = alloca i64, align 8
  store ptr %0, ptr %5, align 8, !tbaa !212
  store i64 %1, ptr %6, align 8, !tbaa !72
  store i64 %2, ptr %7, align 8, !tbaa !72
  store i64 %3, ptr %8, align 8, !tbaa !72
  %9 = load ptr, ptr %5, align 8
  %10 = getelementptr inbounds nuw %"struct.faiss::DirectMapAdd", ptr %9, i32 0, i32 1
  %11 = load i32, ptr %10, align 8, !tbaa !214
  %12 = icmp eq i32 %11, 1
  br i1 %12, label %13, label %25

13:                                               ; preds = %4
  %14 = load i64, ptr %7, align 8, !tbaa !72
  %15 = load i64, ptr %8, align 8, !tbaa !72
  %16 = call noundef i64 @_ZN5faiss8lo_buildEmm(i64 noundef %14, i64 noundef %15)
  %17 = getelementptr inbounds nuw %"struct.faiss::DirectMapAdd", ptr %9, i32 0, i32 0
  %18 = load ptr, ptr %17, align 8, !tbaa !219
  %19 = getelementptr inbounds nuw %"struct.faiss::DirectMap", ptr %18, i32 0, i32 1
  %20 = getelementptr inbounds nuw %"struct.faiss::DirectMapAdd", ptr %9, i32 0, i32 2
  %21 = load i64, ptr %20, align 8, !tbaa !218
  %22 = load i64, ptr %6, align 8, !tbaa !72
  %23 = add i64 %21, %22
  %24 = call noundef nonnull align 8 dereferenceable(8) ptr @_ZNSt6vectorIlSaIlEEixEm(ptr noundef nonnull align 8 dereferenceable(24) %19, i64 noundef %23) #18
  store i64 %16, ptr %24, align 8, !tbaa !72
  br label %37

25:                                               ; preds = %4
  %26 = getelementptr inbounds nuw %"struct.faiss::DirectMapAdd", ptr %9, i32 0, i32 1
  %27 = load i32, ptr %26, align 8, !tbaa !214
  %28 = icmp eq i32 %27, 2
  br i1 %28, label %29, label %36

29:                                               ; preds = %25
  %30 = load i64, ptr %7, align 8, !tbaa !72
  %31 = load i64, ptr %8, align 8, !tbaa !72
  %32 = call noundef i64 @_ZN5faiss8lo_buildEmm(i64 noundef %30, i64 noundef %31)
  %33 = getelementptr inbounds nuw %"struct.faiss::DirectMapAdd", ptr %9, i32 0, i32 5
  %34 = load i64, ptr %6, align 8, !tbaa !72
  %35 = call noundef nonnull align 8 dereferenceable(8) ptr @_ZNSt6vectorIlSaIlEEixEm(ptr noundef nonnull align 8 dereferenceable(24) %33, i64 noundef %34) #18
  store i64 %32, ptr %35, align 8, !tbaa !72
  br label %36

36:                                               ; preds = %29, %25
  br label %37

37:                                               ; preds = %36, %13
  ret void
}