; Function Attrs: mustprogress nofree norecurse nosync nounwind willreturn memory(readwrite, inaccessiblemem: none) uwtable
define void @_ZN5faiss12DirectMapAdd3addEmlm(ptr noundef nonnull readonly align 8 captures(none) dereferenceable(64) %0, i64 noundef %1, i64 noundef %2, i64 noundef %3) local_unnamed_addr #18 align 2 {
  %5 = getelementptr inbounds nuw i8, ptr %0, i64 8
  %6 = load i32, ptr %5, align 8, !tbaa !63
  switch i32 %6, label %18 [
    i32 1, label %7
    i32 2, label %14
  ]

7:                                                ; preds = %4
  %8 = load ptr, ptr %0, align 8, !tbaa !68
  %9 = getelementptr inbounds nuw i8, ptr %8, i64 8
  %10 = getelementptr inbounds nuw i8, ptr %0, i64 16
  %11 = load i64, ptr %10, align 8, !tbaa !67
  %12 = load ptr, ptr %9, align 8, !tbaa !33
  %13 = getelementptr i64, ptr %12, i64 %11
  br label %.sink.split

14:                                               ; preds = %4
  %15 = getelementptr inbounds nuw i8, ptr %0, i64 40
  %16 = load ptr, ptr %15, align 8, !tbaa !33
  br label %.sink.split

.sink.split:                                      ; preds = %7, %14
  %.sink7 = phi ptr [ %16, %14 ], [ %13, %7 ]
  %.pn = shl i64 %2, 32
  %.sink = or i64 %.pn, %3
  %17 = getelementptr i64, ptr %.sink7, i64 %1
  store i64 %.sink, ptr %17, align 8, !tbaa !39
  br label %18

18:                                               ; preds = %.sink.split, %4
  ret void
}